; Function Attrs: nounwind uwtable
define dso_local ptr @TwoPhaseGetDummyProc(i32 noundef %0, i1 noundef zeroext %1) local_unnamed_addr #0 {
  %3 = tail call fastcc ptr @TwoPhaseGetGXact(i32 noundef %0, i1 noundef zeroext %1)
  %4 = load ptr, ptr @ProcGlobal, align 8
  %5 = load ptr, ptr %4, align 8
  %6 = getelementptr inbounds nuw i8, ptr %3, i64 8
  %7 = load i32, ptr %6, align 8
  %8 = sext i32 %7 to i64
  %9 = getelementptr inbounds %struct.PGPROC, ptr %5, i64 %8
  ret ptr %9
}